target datalayout = "e-m:e-p270:32:32-p271:32:32-p272:64:64-i64:64-i128:128-f80:128-n8:16:32:64-S128"
target triple = "x86_64-pc-linux-gnu"

%struct.cli_hashset = type { ptr, ptr, ptr, i32, i32, i32, i32 }

@.str.16 = private unnamed_addr constant [57 x i8] c"hashtab: Invalid load factor: %u, using default of 80%%\0A\00", align 1
@.str.17 = private unnamed_addr constant [51 x i8] c"hashtab.c: Unable to allocate memory for hs->keys\0A\00", align 1
@.str.18 = private unnamed_addr constant [53 x i8] c"hashtab.c: Unable to allocate memory for hs->bitmap\0A\00", align 1

; Function Attrs: nounwind uwtable
define internal i64 @nearest_power(i64 noundef %0) #0 {
  %2 = alloca i64, align 8
  %3 = alloca i64, align 8
  %4 = alloca i64, align 8
  store i64 %0, ptr %3, align 8
  store i64 64, ptr %4, align 8
  br label %5

5:                                                ; preds = %16, %1
  %6 = load i64, ptr %4, align 8
  %7 = load i64, ptr %3, align 8
  %8 = icmp ult i64 %6, %7
  br i1 %8, label %9, label %17

9:                                                ; preds = %5
  %10 = load i64, ptr %4, align 8
  %11 = shl i64 %10, 1
  store i64 %11, ptr %4, align 8
  %12 = load i64, ptr %4, align 8
  %13 = icmp eq i64 %12, 0
  br i1 %13, label %14, label %16

14:                                               ; preds = %9
  %15 = load i64, ptr %3, align 8
  store i64 %15, ptr %2, align 8
  br label %19

16:                                               ; preds = %9
  br label %5

17:                                               ; preds = %5
  %18 = load i64, ptr %4, align 8
  store i64 %18, ptr %2, align 8
  br label %19

19:                                               ; preds = %17, %14
  %20 = load i64, ptr %2, align 8
  ret i64 %20
}

; Function Attrs: nounwind uwtable
define i32 @cli_hashset_init(ptr noundef %0, i64 noundef %1, i8 noundef zeroext %2) #0 {
  %4 = alloca i32, align 4
  %5 = alloca ptr, align 8
  %6 = alloca i64, align 8
  %7 = alloca i8, align 1
  store ptr %0, ptr %5, align 8
  store i64 %1, ptr %6, align 8
  store i8 %2, ptr %7, align 1
  %8 = load i8, ptr %7, align 1
  %9 = zext i8 %8 to i32
  %10 = icmp slt i32 %9, 50
  br i1 %10, label %15, label %11

11:                                               ; preds = %3
  %12 = load i8, ptr %7, align 1
  %13 = zext i8 %12 to i32
  %14 = icmp sgt i32 %13, 99
  br i1 %14, label %15, label %18

15:                                               ; preds = %11, %3
  %16 = load i8, ptr %7, align 1
  %17 = zext i8 %16 to i32
  call void (ptr, ...) @cli_dbgmsg(ptr noundef @.str.16, i32 noundef %17)
  store i8 80, ptr %7, align 1
  br label %18

18:                                               ; preds = %15, %11
  %19 = load i64, ptr %6, align 8
  %20 = call i64 @nearest_power(i64 noundef %19)
  store i64 %20, ptr %6, align 8
  %21 = load i64, ptr %6, align 8
  %22 = load i8, ptr %7, align 1
  %23 = zext i8 %22 to i64
  %24 = mul i64 %21, %23
  %25 = udiv i64 %24, 100
  %26 = trunc i64 %25 to i32
  %27 = load ptr, ptr %5, align 8
  %28 = getelementptr inbounds %struct.cli_hashset, ptr %27, i32 0, i32 6
  store i32 %26, ptr %28, align 4
  %29 = load i64, ptr %6, align 8
  %30 = trunc i64 %29 to i32
  %31 = load ptr, ptr %5, align 8
  %32 = getelementptr inbounds %struct.cli_hashset, ptr %31, i32 0, i32 3
  store i32 %30, ptr %32, align 8
  %33 = load i64, ptr %6, align 8
  %34 = sub i64 %33, 1
  %35 = trunc i64 %34 to i32
  %36 = load ptr, ptr %5, align 8
  %37 = getelementptr inbounds %struct.cli_hashset, ptr %36, i32 0, i32 4
  store i32 %35, ptr %37, align 4
  %38 = load ptr, ptr %5, align 8
  %39 = getelementptr inbounds %struct.cli_hashset, ptr %38, i32 0, i32 5
  store i32 0, ptr %39, align 8
  %40 = load i64, ptr %6, align 8
  %41 = mul i64 %40, 4
  %42 = call ptr @cli_max_malloc(i64 noundef %41)
  %43 = load ptr, ptr %5, align 8
  %44 = getelementptr inbounds %struct.cli_hashset, ptr %43, i32 0, i32 0
  store ptr %42, ptr %44, align 8
  %45 = load ptr, ptr %5, align 8
  %46 = getelementptr inbounds %struct.cli_hashset, ptr %45, i32 0, i32 2
  store ptr null, ptr %46, align 8
  %47 = load ptr, ptr %5, align 8
  %48 = getelementptr inbounds %struct.cli_hashset, ptr %47, i32 0, i32 0
  %49 = load ptr, ptr %48, align 8
  %50 = icmp ne ptr %49, null
  br i1 %50, label %52, label %51

51:                                               ; preds = %18
  call void (ptr, ...) @cli_errmsg(ptr noundef @.str.17)
  store i32 20, ptr %4, align 4
  br label %67

52:                                               ; preds = %18
  %53 = load i64, ptr %6, align 8
  %54 = lshr i64 %53, 5
  %55 = call ptr @cli_max_calloc(i64 noundef %54, i64 noundef 4)
  %56 = load ptr, ptr %5, align 8
  %57 = getelementptr inbounds %struct.cli_hashset, ptr %56, i32 0, i32 1
  store ptr %55, ptr %57, align 8
  %58 = load ptr, ptr %5, align 8
  %59 = getelementptr inbounds %struct.cli_hashset, ptr %58, i32 0, i32 1
  %60 = load ptr, ptr %59, align 8
  %61 = icmp ne ptr %60, null
  br i1 %61, label %66, label %62

62:                                               ; preds = %52
  %63 = load ptr, ptr %5, align 8
  %64 = getelementptr inbounds %struct.cli_hashset, ptr %63, i32 0, i32 0
  %65 = load ptr, ptr %64, align 8
  call void @free(ptr noundef %65) #7
  call void (ptr, ...) @cli_errmsg(ptr noundef @.str.18)
  store i32 20, ptr %4, align 4
  br label %67

66:                                               ; preds = %52
  store i32 0, ptr %4, align 4
  br label %67

67:                                               ; preds = %66, %62, %51
  %68 = load i32, ptr %4, align 4
  ret i32 %68
}