; Function Attrs: nounwind uwtable
define noundef i32 @cli_hashset_init(ptr nocapture noundef %0, i64 noundef %1, i8 noundef zeroext %2) local_unnamed_addr #0 {
  %4 = add i8 %2, -100
  %or.cond = icmp ult i8 %4, -50
  br i1 %or.cond, label %5, label %7

5:                                                ; preds = %3
  %6 = zext i8 %2 to i32
  tail call void (ptr, ...) @cli_dbgmsg(ptr noundef nonnull @.str.16, i32 noundef %6) #18
  br label %7

7:                                                ; preds = %3, %5
  %.0 = phi i8 [ 80, %5 ], [ %2, %3 ]
  br label %8

8:                                                ; preds = %10, %7
  %.0.i = phi i64 [ 64, %7 ], [ %11, %10 ]
  %9 = icmp ult i64 %.0.i, %1
  br i1 %9, label %10, label %nearest_power.exit

10:                                               ; preds = %8
  %11 = shl i64 %.0.i, 1
  %12 = icmp eq i64 %11, 0
  br i1 %12, label %nearest_power.exit, label %8

nearest_power.exit:                               ; preds = %8, %10
  %.07.i = phi i64 [ %1, %10 ], [ %.0.i, %8 ]
  %13 = zext i8 %.0 to i64
  %14 = mul i64 %.07.i, %13
  %15 = udiv i64 %14, 100
  %16 = trunc i64 %15 to i32
  %17 = getelementptr inbounds i8, ptr %0, i64 36
  store i32 %16, ptr %17, align 4
  %18 = trunc i64 %.07.i to i32
  %19 = getelementptr inbounds i8, ptr %0, i64 24
  store i32 %18, ptr %19, align 8
  %20 = add i32 %18, -1
  %21 = getelementptr inbounds i8, ptr %0, i64 28
  store i32 %20, ptr %21, align 4
  %22 = getelementptr inbounds i8, ptr %0, i64 32
  store i32 0, ptr %22, align 8
  %23 = shl i64 %.07.i, 2
  %24 = tail call ptr @cli_max_malloc(i64 noundef %23) #18
  store ptr %24, ptr %0, align 8
  %25 = getelementptr inbounds i8, ptr %0, i64 16
  store ptr null, ptr %25, align 8
  %.not = icmp eq ptr %24, null
  br i1 %.not, label %.sink.split, label %26

26:                                               ; preds = %nearest_power.exit
  %27 = lshr i64 %.07.i, 5
  %28 = tail call ptr @cli_max_calloc(i64 noundef %27, i64 noundef 4) #18
  %29 = getelementptr inbounds i8, ptr %0, i64 8
  store ptr %28, ptr %29, align 8
  %.not23 = icmp eq ptr %28, null
  br i1 %.not23, label %30, label %32

30:                                               ; preds = %26
  %31 = load ptr, ptr %0, align 8
  tail call void @free(ptr noundef %31) #18
  br label %.sink.split

.sink.split:                                      ; preds = %nearest_power.exit, %30
  %.str.18.sink = phi ptr [ @.str.18, %30 ], [ @.str.17, %nearest_power.exit ]
  tail call void (ptr, ...) @cli_errmsg(ptr noundef nonnull %.str.18.sink) #18
  br label %32

32:                                               ; preds = %.sink.split, %26
  %.022 = phi i32 [ 0, %26 ], [ 20, %.sink.split ]
  ret i32 %.022
}